; Function Attrs: mustprogress nounwind uwtable
define hidden noundef range(i32 0, 7) i32 @_Z36G1RemSetHowlNumBucketsConstraintFuncjb(i32 noundef %0, i1 noundef zeroext %1) local_unnamed_addr #0 {
  %3 = load i8, ptr @UseG1GC, align 1
  %4 = trunc i8 %3 to i1
  br i1 %4, label %5, label %12

5:                                                ; preds = %2
  %6 = tail call noundef zeroext i1 @_ZN7JVMFlag10is_cmdlineE12JVMFlagsEnum(i32 noundef 968) #4
  br i1 %6, label %7, label %12

7:                                                ; preds = %5
  %8 = icmp eq i32 %0, 0
  br i1 %8, label %_Z13is_power_of_2IjTnNSt9enable_ifIXcvbsr3std11is_integralIT_EE5valueEiE4typeELi0EEbS1_.exit.thread, label %9

9:                                                ; preds = %7
  %10 = load i32, ptr @G1RemSetHowlNumBuckets, align 4
  %11 = tail call range(i32 0, 33) i32 @llvm.ctpop.i32(i32 %10)
  %or.cond = icmp eq i32 %11, 1
  br i1 %or.cond, label %12, label %_Z13is_power_of_2IjTnNSt9enable_ifIXcvbsr3std11is_integralIT_EE5valueEiE4typeELi0EEbS1_.exit.thread

_Z13is_power_of_2IjTnNSt9enable_ifIXcvbsr3std11is_integralIT_EE5valueEiE4typeELi0EEbS1_.exit.thread: ; preds = %9, %7
  tail call void (i1, ptr, ...) @_ZN7JVMFlag10printErrorEbPKcz(i1 noundef zeroext %1, ptr noundef nonnull @.str.4, i32 noundef %0) #4
  br label %12

12:                                               ; preds = %9, %5, %2, %_Z13is_power_of_2IjTnNSt9enable_ifIXcvbsr3std11is_integralIT_EE5valueEiE4typeELi0EEbS1_.exit.thread
  %.0 = phi i32 [ 6, %_Z13is_power_of_2IjTnNSt9enable_ifIXcvbsr3std11is_integralIT_EE5valueEiE4typeELi0EEbS1_.exit.thread ], [ 0, %2 ], [ 0, %5 ], [ 0, %9 ]
  ret i32 %.0
}